target datalayout = "e-m:e-p270:32:32-p271:32:32-p272:64:64-i64:64-i128:128-f80:128-n8:16:32:64-S128"
target triple = "x86_64-pc-linux-gnu"

%struct.wl_list = type { ptr, ptr }
%struct.SDL_VideoData = type { i8, ptr, i32, ptr, ptr, ptr, ptr, i32, %struct.anon.10, ptr, ptr, ptr, ptr, ptr, ptr, ptr, ptr, ptr, ptr, ptr, ptr, ptr, ptr, ptr, ptr, ptr, ptr, ptr, ptr, ptr, ptr, %struct.wl_list, ptr, ptr, ptr, ptr, i32, i32, i8, i8 }
%struct.anon.10 = type { ptr }
%struct.SDL_Rect = type { i32, i32, i32, i32 }
%struct.SDL_VideoDisplay = type { i32, ptr, i32, i32, ptr, %struct.SDL_DisplayMode, ptr, i32, i32, float, %struct.SDL_HDROutputProperties, i8, ptr, ptr, i32, ptr }
%struct.SDL_DisplayMode = type { i32, i32, i32, i32, float, float, i32, i32, ptr }
%struct.SDL_HDROutputProperties = type { float, float }
%struct.SDL_DisplayData = type { ptr, ptr, ptr, ptr, ptr, double, i32, i32, i32, i32, i32, i32, i32, i32, i32, i32, i32, i32, i8, i8, i8, %struct.SDL_HDROutputProperties, i32, %struct.SDL_VideoDisplay, i32, ptr }
%struct.SDL_WaylandSeat = type { ptr, ptr, ptr, ptr, ptr, %struct.wl_list, i32, i32, %struct.anon.13, %struct.anon.15, %struct.anon.18, %struct.anon.19, %struct.anon.20 }
%struct.anon.13 = type { ptr, ptr, ptr, ptr, ptr, %struct.SDL_WaylandKeyboardRepeat, i64, i16, i16, i32, i8, %struct.anon.14 }
%struct.SDL_WaylandKeyboardRepeat = type { i32, i32, i32, i8, i8, i32, i64, i64, i64, i32, [8 x i8] }
%struct.anon.14 = type { ptr, ptr, ptr, ptr, i32, i32, i32, i32, i32, i32, i32, i32, i32, i32, i32 }
%struct.anon.15 = type { ptr, ptr, ptr, ptr, ptr, ptr, ptr, ptr, i64, i32, i32, %struct.SDL_Point, i32, %struct.anon.16, %struct.anon.17 }
%struct.SDL_Point = type { i32, i32 }
%struct.anon.16 = type { i32, float, i32, float, i64, i32 }
%struct.anon.17 = type { ptr, ptr, ptr, i64, i64, i32 }
%struct.anon.18 = type { ptr, ptr, i64, %struct.wl_list }
%struct.anon.19 = type { ptr, %struct.SDL_Rect, i8, i8 }
%struct.anon.20 = type { ptr, %struct.wl_list }

; Function Attrs: nounwind uwtable
define internal void @display_remove_global(ptr noundef %0, ptr noundef %1, i32 noundef %2) #0 {
  %4 = alloca ptr, align 8
  %5 = alloca ptr, align 8
  %6 = alloca i32, align 4
  %7 = alloca ptr, align 8
  %8 = alloca i32, align 4
  %9 = alloca i32, align 4
  %10 = alloca ptr, align 8
  %11 = alloca ptr, align 8
  %12 = alloca ptr, align 8
  store ptr %0, ptr %4, align 8
  store ptr %1, ptr %5, align 8
  store i32 %2, ptr %6, align 4
  call void @llvm.lifetime.start.p0(i64 8, ptr %7) #8
  %13 = load ptr, ptr %4, align 8
  store ptr %13, ptr %7, align 8
  call void @llvm.lifetime.start.p0(i64 4, ptr %8) #8
  store i32 0, ptr %8, align 4
  br label %14

14:                                               ; preds = %75, %3
  %15 = load i32, ptr %8, align 4
  %16 = load ptr, ptr %7, align 8
  %17 = getelementptr inbounds nuw %struct.SDL_VideoData, ptr %16, i32 0, i32 36
  %18 = load i32, ptr %17, align 8
  %19 = icmp slt i32 %15, %18
  br i1 %19, label %21, label %20

20:                                               ; preds = %14
  store i32 2, ptr %9, align 4
  br label %78

21:                                               ; preds = %14
  call void @llvm.lifetime.start.p0(i64 8, ptr %10) #8
  %22 = load ptr, ptr %7, align 8
  %23 = getelementptr inbounds nuw %struct.SDL_VideoData, ptr %22, i32 0, i32 35
  %24 = load ptr, ptr %23, align 8
  %25 = load i32, ptr %8, align 4
  %26 = sext i32 %25 to i64
  %27 = getelementptr inbounds ptr, ptr %24, i64 %26
  %28 = load ptr, ptr %27, align 8
  store ptr %28, ptr %10, align 8
  %29 = load ptr, ptr %10, align 8
  %30 = getelementptr inbounds nuw %struct.SDL_DisplayData, ptr %29, i32 0, i32 6
  %31 = load i32, ptr %30, align 8
  %32 = load i32, ptr %6, align 4
  %33 = icmp eq i32 %31, %32
  br i1 %33, label %34, label %71

34:                                               ; preds = %21
  %35 = load ptr, ptr %10, align 8
  %36 = getelementptr inbounds nuw %struct.SDL_DisplayData, ptr %35, i32 0, i32 22
  %37 = load i32, ptr %36, align 4
  %38 = call ptr @SDL_GetVideoDisplay(i32 noundef %37)
  call void @Wayland_free_display(ptr noundef %38, i1 noundef zeroext true)
  %39 = load i32, ptr %8, align 4
  %40 = load ptr, ptr %7, align 8
  %41 = getelementptr inbounds nuw %struct.SDL_VideoData, ptr %40, i32 0, i32 36
  %42 = load i32, ptr %41, align 8
  %43 = icmp slt i32 %39, %42
  br i1 %43, label %44, label %66

44:                                               ; preds = %34
  %45 = load ptr, ptr %7, align 8
  %46 = getelementptr inbounds nuw %struct.SDL_VideoData, ptr %45, i32 0, i32 35
  %47 = load ptr, ptr %46, align 8
  %48 = load i32, ptr %8, align 4
  %49 = sext i32 %48 to i64
  %50 = getelementptr inbounds ptr, ptr %47, i64 %49
  %51 = load ptr, ptr %7, align 8
  %52 = getelementptr inbounds nuw %struct.SDL_VideoData, ptr %51, i32 0, i32 35
  %53 = load ptr, ptr %52, align 8
  %54 = load i32, ptr %8, align 4
  %55 = add nsw i32 %54, 1
  %56 = sext i32 %55 to i64
  %57 = getelementptr inbounds ptr, ptr %53, i64 %56
  %58 = load ptr, ptr %7, align 8
  %59 = getelementptr inbounds nuw %struct.SDL_VideoData, ptr %58, i32 0, i32 36
  %60 = load i32, ptr %59, align 8
  %61 = load i32, ptr %8, align 4
  %62 = sub nsw i32 %60, %61
  %63 = sub nsw i32 %62, 1
  %64 = sext i32 %63 to i64
  %65 = mul i64 8, %64
  call void @llvm.memmove.p0.p0.i64(ptr align 8 %50, ptr align 8 %57, i64 %65, i1 false)
  br label %66

66:                                               ; preds = %44, %34
  %67 = load ptr, ptr %7, align 8
  %68 = getelementptr inbounds nuw %struct.SDL_VideoData, ptr %67, i32 0, i32 36
  %69 = load i32, ptr %68, align 8
  %70 = add nsw i32 %69, -1
  store i32 %70, ptr %68, align 8
  store i32 1, ptr %9, align 4
  br label %72

71:                                               ; preds = %21
  store i32 0, ptr %9, align 4
  br label %72

72:                                               ; preds = %71, %66
  call void @llvm.lifetime.end.p0(i64 8, ptr %10) #8
  %73 = load i32, ptr %9, align 4
  switch i32 %73, label %78 [
    i32 0, label %74
  ]

74:                                               ; preds = %72
  br label %75

75:                                               ; preds = %74
  %76 = load i32, ptr %8, align 4
  %77 = add nsw i32 %76, 1
  store i32 %77, ptr %8, align 4
  br label %14, !llvm.loop !8

78:                                               ; preds = %72, %20
  call void @llvm.lifetime.end.p0(i64 4, ptr %8) #8
  %79 = load i32, ptr %9, align 4
  switch i32 %79, label %136 [
    i32 2, label %80
  ]

80:                                               ; preds = %78
  call void @llvm.lifetime.start.p0(i64 8, ptr %11) #8
  call void @llvm.lifetime.start.p0(i64 8, ptr %12) #8
  %81 = load ptr, ptr %7, align 8
  %82 = getelementptr inbounds nuw %struct.SDL_VideoData, ptr %81, i32 0, i32 31
  %83 = getelementptr inbounds nuw %struct.wl_list, ptr %82, i32 0, i32 1
  %84 = load ptr, ptr %83, align 8
  %85 = getelementptr inbounds i8, ptr %84, i64 -40
  store ptr %85, ptr %11, align 8
  %86 = load ptr, ptr %11, align 8
  %87 = getelementptr inbounds nuw %struct.SDL_WaylandSeat, ptr %86, i32 0, i32 5
  %88 = getelementptr inbounds nuw %struct.wl_list, ptr %87, i32 0, i32 1
  %89 = load ptr, ptr %88, align 8
  %90 = getelementptr inbounds i8, ptr %89, i64 -40
  store ptr %90, ptr %12, align 8
  br label %91

91:                                               ; preds = %128, %80
  %92 = load ptr, ptr %11, align 8
  %93 = getelementptr inbounds nuw %struct.SDL_WaylandSeat, ptr %92, i32 0, i32 5
  %94 = load ptr, ptr %7, align 8
  %95 = getelementptr inbounds nuw %struct.SDL_VideoData, ptr %94, i32 0, i32 31
  %96 = icmp ne ptr %93, %95
  br i1 %96, label %97, label %135

97:                                               ; preds = %91
  %98 = load ptr, ptr %11, align 8
  %99 = getelementptr inbounds nuw %struct.SDL_WaylandSeat, ptr %98, i32 0, i32 7
  %100 = load i32, ptr %99, align 4
  %101 = load i32, ptr %6, align 4
  %102 = icmp eq i32 %100, %101
  br i1 %102, label %103, label %127

103:                                              ; preds = %97
  %104 = load ptr, ptr %11, align 8
  %105 = getelementptr inbounds nuw %struct.SDL_WaylandSeat, ptr %104, i32 0, i32 8
  %106 = getelementptr inbounds nuw %struct.anon.13, ptr %105, i32 0, i32 0
  %107 = load ptr, ptr %106, align 8
  %108 = icmp ne ptr %107, null
  br i1 %108, label %109, label %114

109:                                              ; preds = %103
  %110 = load ptr, ptr %11, align 8
  %111 = getelementptr inbounds nuw %struct.SDL_WaylandSeat, ptr %110, i32 0, i32 8
  %112 = getelementptr inbounds nuw %struct.anon.13, ptr %111, i32 0, i32 9
  %113 = load i32, ptr %112, align 4
  call void @SDL_RemoveKeyboard(i32 noundef %113, i1 noundef zeroext true)
  br label %114

114:                                              ; preds = %109, %103
  %115 = load ptr, ptr %11, align 8
  %116 = getelementptr inbounds nuw %struct.SDL_WaylandSeat, ptr %115, i32 0, i32 8
  %117 = getelementptr inbounds nuw %struct.anon.13, ptr %116, i32 0, i32 0
  %118 = load ptr, ptr %117, align 8
  %119 = icmp ne ptr %118, null
  br i1 %119, label %120, label %125

120:                                              ; preds = %114
  %121 = load ptr, ptr %11, align 8
  %122 = getelementptr inbounds nuw %struct.SDL_WaylandSeat, ptr %121, i32 0, i32 9
  %123 = getelementptr inbounds nuw %struct.anon.15, ptr %122, i32 0, i32 12
  %124 = load i32, ptr %123, align 8
  call void @SDL_RemoveMouse(i32 noundef %124, i1 noundef zeroext true)
  br label %125

125:                                              ; preds = %120, %114
  %126 = load ptr, ptr %11, align 8
  call void @Wayland_SeatDestroy(ptr noundef %126, i1 noundef zeroext true)
  br label %127

127:                                              ; preds = %125, %97
  br label %128

128:                                              ; preds = %127
  %129 = load ptr, ptr %12, align 8
  store ptr %129, ptr %11, align 8
  %130 = load ptr, ptr %11, align 8
  %131 = getelementptr inbounds nuw %struct.SDL_WaylandSeat, ptr %130, i32 0, i32 5
  %132 = getelementptr inbounds nuw %struct.wl_list, ptr %131, i32 0, i32 1
  %133 = load ptr, ptr %132, align 8
  %134 = getelementptr inbounds i8, ptr %133, i64 -40
  store ptr %134, ptr %12, align 8
  br label %91, !llvm.loop !9

135:                                              ; preds = %91
  call void @llvm.lifetime.end.p0(i64 8, ptr %12) #8
  call void @llvm.lifetime.end.p0(i64 8, ptr %11) #8
  store i32 0, ptr %9, align 4
  br label %136

136:                                              ; preds = %135, %78
  call void @llvm.lifetime.end.p0(i64 8, ptr %7) #8
  %137 = load i32, ptr %9, align 4
  switch i32 %137, label %139 [
    i32 0, label %138
    i32 1, label %138
  ]

138:                                              ; preds = %136, %136
  ret void

139:                                              ; preds = %136
  unreachable
}