; Function Attrs: nounwind uwtable
define internal void @display_remove_global(ptr noundef captures(address) %0, ptr readnone captures(none) %1, i32 noundef %2) #0 {
  %4 = getelementptr inbounds nuw i8, ptr %0, i64 296
  %5 = load i32, ptr %4, align 8
  %.not3751 = icmp sgt i32 %5, 0
  br i1 %.not3751, label %.lr.ph, label %.critedge44

.lr.ph:                                           ; preds = %3
  %6 = getelementptr inbounds nuw i8, ptr %0, i64 288
  %7 = load ptr, ptr %6, align 8
  %wide.trip.count = zext nneg i32 %5 to i64
  br label %8

8:                                                ; preds = %.lr.ph, %.critedge
  %indvars.iv = phi i64 [ 0, %.lr.ph ], [ %indvars.iv.next, %.critedge ]
  %9 = getelementptr inbounds nuw ptr, ptr %7, i64 %indvars.iv
  %10 = load ptr, ptr %9, align 8
  %11 = getelementptr inbounds nuw i8, ptr %10, i64 48
  %12 = load i32, ptr %11, align 8
  %.not = icmp eq i32 %12, %2
  br i1 %.not, label %13, label %.critedge

13:                                               ; preds = %8
  %14 = trunc nuw nsw i64 %indvars.iv to i32
  %15 = getelementptr inbounds nuw i8, ptr %10, i64 108
  %16 = load i32, ptr %15, align 4
  %17 = tail call ptr @SDL_GetVideoDisplay(i32 noundef %16) #12
  tail call fastcc void @Wayland_free_display(ptr noundef %17, i1 noundef zeroext true)
  %18 = load i32, ptr %4, align 8
  %19 = icmp sgt i32 %18, %14
  br i1 %19, label %20, label %28

20:                                               ; preds = %13
  %21 = load ptr, ptr %6, align 8
  %22 = getelementptr inbounds nuw ptr, ptr %21, i64 %indvars.iv
  %23 = getelementptr inbounds nuw i8, ptr %22, i64 8
  %24 = xor i32 %14, -1
  %25 = add i32 %18, %24
  %26 = sext i32 %25 to i64
  %27 = shl nsw i64 %26, 3
  tail call void @llvm.memmove.p0.p0.i64(ptr align 8 %22, ptr nonnull align 8 %23, i64 %27, i1 false)
  %.pre = load i32, ptr %4, align 8
  br label %28

.critedge:                                        ; preds = %8
  %indvars.iv.next = add nuw nsw i64 %indvars.iv, 1
  %exitcond.not = icmp eq i64 %indvars.iv.next, %wide.trip.count
  br i1 %exitcond.not, label %.critedge44, label %8, !llvm.loop !16

28:                                               ; preds = %13, %20
  %29 = phi i32 [ %18, %13 ], [ %.pre, %20 ]
  %30 = add nsw i32 %29, -1
  store i32 %30, ptr %4, align 8
  br label %.loopexit

.critedge44:                                      ; preds = %.critedge, %3
  %31 = getelementptr inbounds nuw i8, ptr %0, i64 248
  %32 = getelementptr inbounds nuw i8, ptr %0, i64 256
  %33 = load ptr, ptr %32, align 8
  %.not3856 = icmp eq ptr %33, %31
  br i1 %.not3856, label %.loopexit, label %.lr.ph60

.lr.ph60:                                         ; preds = %.critedge44, %46
  %.pn4157 = phi ptr [ %.pn59, %46 ], [ %33, %.critedge44 ]
  %.03358 = getelementptr inbounds i8, ptr %.pn4157, i64 -40
  %.pn59.in = getelementptr inbounds nuw i8, ptr %.pn4157, i64 8
  %.pn59 = load ptr, ptr %.pn59.in, align 8
  %34 = getelementptr inbounds nuw i8, ptr %.pn4157, i64 20
  %35 = load i32, ptr %34, align 4
  %36 = icmp eq i32 %35, %2
  br i1 %36, label %37, label %46

37:                                               ; preds = %.lr.ph60
  %38 = getelementptr inbounds nuw i8, ptr %.pn4157, i64 24
  %39 = load ptr, ptr %38, align 8
  %.not39 = icmp eq ptr %39, null
  br i1 %.not39, label %.thread, label %40

40:                                               ; preds = %37
  %41 = getelementptr inbounds nuw i8, ptr %.pn4157, i64 140
  %42 = load i32, ptr %41, align 4
  tail call void @SDL_RemoveKeyboard(i32 noundef %42, i1 noundef zeroext true) #12
  %.pr = load ptr, ptr %38, align 8
  %.not40 = icmp eq ptr %.pr, null
  br i1 %.not40, label %.thread, label %43

43:                                               ; preds = %40
  %44 = getelementptr inbounds nuw i8, ptr %.pn4157, i64 320
  %45 = load i32, ptr %44, align 8
  tail call void @SDL_RemoveMouse(i32 noundef %45, i1 noundef zeroext true) #12
  br label %.thread

.thread:                                          ; preds = %37, %43, %40
  tail call void @Wayland_SeatDestroy(ptr noundef nonnull %.03358, i1 noundef zeroext true) #12
  br label %46

46:                                               ; preds = %.lr.ph60, %.thread
  %.not38 = icmp eq ptr %.pn59, %31
  br i1 %.not38, label %.loopexit, label %.lr.ph60, !llvm.loop !17

.loopexit:                                        ; preds = %46, %.critedge44, %28
  ret void
}